target datalayout = "e-m:e-p270:32:32-p271:32:32-p272:64:64-i64:64-i128:128-f80:128-n8:16:32:64-S128"
target triple = "x86_64-pc-linux-gnu"

%struct.jit_State = type { %struct.GCtrace, ptr, ptr, ptr, ptr, ptr, ptr, i32, i32, i32, i8, i8, %struct.IRType1, i8, %struct.FoldState, ptr, i32, i32, i32, i32, i32, i32, i32, [1 x i32], [5 x %union.TValue], [3 x %union.TValue], ptr, i32, i32, i32, i32, ptr, ptr, i32, i32, i8, ptr, i32, i32, i16, [101 x i16], [258 x i32], [15 x i32], [16 x ptr], [64 x %struct.HotPenalty], i32, [16 x %struct.BPropEntry], i32, %struct.ScEvEntry, ptr, i32, i32, i32, ptr, i32, i32, ptr, ptr, ptr, i64, i64, %union.TValue, ptr, i32, i32 }
%struct.GCtrace = type { %struct.GCRef, i8, i8, i16, i32, i32, %struct.GCRef, ptr, i32, i32, ptr, ptr, %struct.GCRef, %struct.MRef, i32, i32, ptr, i32, i16, i16, i16, i16, i16, i16, i16, i8, i8, i8, i8 }
%struct.GCRef = type { i64 }
%struct.MRef = type { i64 }
%struct.IRType1 = type { i8 }
%struct.FoldState = type { %union.IRIns, [2 x %union.IRIns], [2 x %union.IRIns] }
%union.IRIns = type { %struct.GCRef }
%struct.HotPenalty = type { %struct.MRef, i16, i16 }
%struct.BPropEntry = type { i16, i16, i32 }
%struct.ScEvEntry = type { %struct.MRef, i16, i16, i16, i16, %struct.IRType1, i8 }
%union.TValue = type { i64 }
%struct.anon = type { i16, i16, i16, i16 }

; Function Attrs: alwaysinline nounwind uwtable
define internal void @lj_ir_set_(ptr noundef %0, i16 noundef zeroext %1, i16 noundef zeroext %2, i16 noundef zeroext %3) #2 {
  %5 = alloca ptr, align 8
  %6 = alloca i16, align 2
  %7 = alloca i16, align 2
  %8 = alloca i16, align 2
  store ptr %0, ptr %5, align 8, !tbaa !4
  store i16 %1, ptr %6, align 2, !tbaa !44
  store i16 %2, ptr %7, align 2, !tbaa !44
  store i16 %3, ptr %8, align 2, !tbaa !44
  %9 = load i16, ptr %6, align 2, !tbaa !44
  %10 = load ptr, ptr %5, align 8, !tbaa !4
  %11 = getelementptr inbounds nuw %struct.jit_State, ptr %10, i32 0, i32 14
  %12 = getelementptr inbounds nuw %struct.FoldState, ptr %11, i32 0, i32 0
  %13 = getelementptr inbounds nuw %struct.anon, ptr %12, i32 0, i32 2
  store i16 %9, ptr %13, align 4, !tbaa !33
  %14 = load i16, ptr %7, align 2, !tbaa !44
  %15 = load ptr, ptr %5, align 8, !tbaa !4
  %16 = getelementptr inbounds nuw %struct.jit_State, ptr %15, i32 0, i32 14
  %17 = getelementptr inbounds nuw %struct.FoldState, ptr %16, i32 0, i32 0
  %18 = getelementptr inbounds nuw %struct.anon, ptr %17, i32 0, i32 0
  store i16 %14, ptr %18, align 8, !tbaa !33
  %19 = load i16, ptr %8, align 2, !tbaa !44
  %20 = load ptr, ptr %5, align 8, !tbaa !4
  %21 = getelementptr inbounds nuw %struct.jit_State, ptr %20, i32 0, i32 14
  %22 = getelementptr inbounds nuw %struct.FoldState, ptr %21, i32 0, i32 0
  %23 = getelementptr inbounds nuw %struct.anon, ptr %22, i32 0, i32 1
  store i16 %19, ptr %23, align 2, !tbaa !33
  ret void
}

; Function Attrs: nounwind uwtable
define hidden i32 @lj_opt_narrow_cindex(ptr noundef %0, i32 noundef %1) #0 {
  %3 = alloca i32, align 4
  %4 = alloca ptr, align 8
  %5 = alloca i32, align 4
  store ptr %0, ptr %4, align 8, !tbaa !4
  store i32 %1, ptr %5, align 4, !tbaa !38
  %6 = load i32, ptr %5, align 4, !tbaa !38
  %7 = and i32 %6, 520093696
  %8 = icmp eq i32 %7, 234881024
  br i1 %8, label %9, label %15

9:                                                ; preds = %2
  %10 = load ptr, ptr %4, align 8, !tbaa !4
  %11 = load i32, ptr %5, align 4, !tbaa !38
  %12 = trunc i32 %11 to i16
  call void @lj_ir_set_(ptr noundef %10, i16 noundef zeroext 23317, i16 noundef zeroext %12, i16 noundef zeroext 4782)
  %13 = load ptr, ptr %4, align 8, !tbaa !4
  %14 = call i32 @lj_opt_fold(ptr noundef %13)
  store i32 %14, ptr %3, align 4
  br label %19

15:                                               ; preds = %2
  %16 = load ptr, ptr %4, align 8, !tbaa !4
  %17 = load i32, ptr %5, align 4, !tbaa !38
  %18 = call i32 @narrow_stripov(ptr noundef %16, i32 noundef %17, i32 noundef 55, i32 noundef 2739)
  store i32 %18, ptr %3, align 4
  br label %19

19:                                               ; preds = %15, %9
  %20 = load i32, ptr %3, align 4
  ret i32 %20
}