; Function Attrs: nounwind uwtable
define hidden i32 @lj_opt_narrow_cindex(ptr noundef %0, i32 noundef %1) local_unnamed_addr #0 {
  %3 = and i32 %1, 520093696
  %4 = icmp eq i32 %3, 234881024
  br i1 %4, label %5, label %11

5:                                                ; preds = %2
  %6 = trunc i32 %1 to i16
  %7 = getelementptr inbounds nuw i8, ptr %0, i64 184
  %8 = getelementptr inbounds nuw i8, ptr %0, i64 188
  store i16 23317, ptr %8, align 4, !tbaa !32
  store i16 %6, ptr %7, align 8, !tbaa !32
  %9 = getelementptr inbounds nuw i8, ptr %0, i64 186
  store i16 4782, ptr %9, align 2, !tbaa !32
  %10 = tail call i32 @lj_opt_fold(ptr noundef %0) #6
  br label %13

11:                                               ; preds = %2
  %12 = tail call fastcc i32 @narrow_stripov(ptr noundef %0, i32 noundef %1, i32 noundef 55, i32 noundef 2739)
  br label %13

13:                                               ; preds = %11, %5
  %.0 = phi i32 [ %10, %5 ], [ %12, %11 ]
  ret i32 %.0
}